; Function Attrs: mustprogress nofree norecurse nosync nounwind memory(readwrite, inaccessiblemem: none) uwtable
define dso_local noundef nonnull align 8 dereferenceable(12) ptr @_ZN4llvm5APIntppEv(ptr noundef nonnull returned align 8 dereferenceable(12) %0) local_unnamed_addr #4 align 2 {
  %2 = getelementptr inbounds nuw i8, ptr %0, i64 8
  %3 = load i32, ptr %2, align 8
  %4 = icmp ult i32 %3, 65
  br i1 %4, label %_ZN4llvm5APInt11tcIncrementEPmj.exit.thread, label %.lr.ph.preheader.i.i

_ZN4llvm5APInt11tcIncrementEPmj.exit.thread:      ; preds = %1
  %5 = load i64, ptr %0, align 8
  %6 = add i64 %5, 1
  store i64 %6, ptr %0, align 8
  %7 = add nuw nsw i32 %3, 63
  %8 = and i32 %7, 63
  %9 = xor i32 %8, 63
  %10 = zext nneg i32 %9 to i64
  %11 = lshr i64 -1, %10
  br label %25

.lr.ph.preheader.i.i:                             ; preds = %1
  %12 = load ptr, ptr %0, align 8
  %13 = zext i32 %3 to i64
  %14 = add nuw nsw i64 %13, 63
  %15 = lshr i64 %14, 6
  br label %.lr.ph.i.i

.lr.ph.i.i:                                       ; preds = %.lr.ph.i.i, %.lr.ph.preheader.i.i
  %indvars.iv.i.i = phi i64 [ 0, %.lr.ph.preheader.i.i ], [ %indvars.iv.next.i.i, %.lr.ph.i.i ]
  %16 = getelementptr inbounds nuw i64, ptr %12, i64 %indvars.iv.i.i
  %17 = load i64, ptr %16, align 8
  %18 = add i64 %17, 1
  store i64 %18, ptr %16, align 8
  %.not.i.i = icmp ne i64 %18, 0
  %indvars.iv.next.i.i = add nuw nsw i64 %indvars.iv.i.i, 1
  %exitcond.not.i.i = icmp eq i64 %indvars.iv.next.i.i, %15
  %or.cond = select i1 %.not.i.i, i1 true, i1 %exitcond.not.i.i
  br i1 %or.cond, label %_ZN4llvm5APInt11tcIncrementEPmj.exit, label %.lr.ph.i.i, !llvm.loop !6

_ZN4llvm5APInt11tcIncrementEPmj.exit:             ; preds = %.lr.ph.i.i
  %.pre = load i32, ptr %2, align 8
  %19 = add i32 %.pre, 63
  %20 = and i32 %19, 63
  %21 = xor i32 %20, 63
  %22 = zext nneg i32 %21 to i64
  %23 = lshr i64 -1, %22
  %24 = icmp ult i32 %.pre, 65
  br i1 %24, label %25, label %31

25:                                               ; preds = %_ZN4llvm5APInt11tcIncrementEPmj.exit.thread, %_ZN4llvm5APInt11tcIncrementEPmj.exit
  %26 = phi i64 [ %11, %_ZN4llvm5APInt11tcIncrementEPmj.exit.thread ], [ %23, %_ZN4llvm5APInt11tcIncrementEPmj.exit ]
  %27 = phi i32 [ %3, %_ZN4llvm5APInt11tcIncrementEPmj.exit.thread ], [ %.pre, %_ZN4llvm5APInt11tcIncrementEPmj.exit ]
  %28 = icmp eq i32 %27, 0
  %spec.store.select.i = select i1 %28, i64 0, i64 %26
  %29 = load i64, ptr %0, align 8
  %30 = and i64 %29, %spec.store.select.i
  store i64 %30, ptr %0, align 8
  br label %_ZN4llvm5APInt15clearUnusedBitsEv.exit

31:                                               ; preds = %_ZN4llvm5APInt11tcIncrementEPmj.exit
  %32 = load ptr, ptr %0, align 8
  %33 = zext i32 %.pre to i64
  %34 = add nuw nsw i64 %33, 63
  %35 = lshr i64 %34, 6
  %36 = add nuw nsw i64 %35, 4294967295
  %37 = and i64 %36, 4294967295
  %38 = getelementptr inbounds nuw i64, ptr %32, i64 %37
  %39 = load i64, ptr %38, align 8
  %40 = and i64 %39, %23
  store i64 %40, ptr %38, align 8
  br label %_ZN4llvm5APInt15clearUnusedBitsEv.exit

_ZN4llvm5APInt15clearUnusedBitsEv.exit:           ; preds = %25, %31
  ret ptr %0
}